target datalayout = "e-m:e-p270:32:32-p271:32:32-p272:64:64-i64:64-i128:128-f80:128-n8:16:32:64-S128"
target triple = "x86_64-unknown-linux-gnu"

%"class.testing::MatcherDescriberInterface" = type { ptr }
%"class.testing::MatchResultListener" = type { ptr, ptr }
%"struct.absl::cord_internal::CordRep::ExtractResult" = type { ptr, ptr }
%"class.testing::MatcherInterface.888" = type { %"class.testing::MatcherDescriberInterface" }
%"class.absl::cord_internal::(anonymous namespace)::EqExtractResultMatcherP2<absl::cord_internal::CordRep *, absl::cord_internal::CordRep *>::gmock_Impl" = type { %"class.testing::MatcherInterface.888", ptr, ptr }

@.str.119 = private unnamed_addr constant [3 x i8] c", \00", align 1
@.str.341 = private unnamed_addr constant [11 x i8] c"Expected {\00", align 1
@.str.342 = private unnamed_addr constant [9 x i8] c"}, got {\00", align 1
@.str.343 = private unnamed_addr constant [2 x i8] c"}\00", align 1

; Function Attrs: mustprogress uwtable
define linkonce_odr dso_local noundef nonnull align 8 dereferenceable(16) ptr @_ZN7testing19MatchResultListenerlsIA2_cEERS0_RKT_(ptr noundef nonnull align 8 dereferenceable(16) %this, ptr noundef nonnull align 1 dereferenceable(2) %x) #4 comdat align 2 {
entry:
  %this.addr = alloca ptr, align 8
  %x.addr = alloca ptr, align 8
  store ptr %this, ptr %this.addr, align 8
  store ptr %x, ptr %x.addr, align 8
  %this1 = load ptr, ptr %this.addr, align 8
  %stream_ = getelementptr inbounds %"class.testing::MatchResultListener", ptr %this1, i32 0, i32 1
  %0 = load ptr, ptr %stream_, align 8
  %cmp = icmp ne ptr %0, null
  br i1 %cmp, label %if.then, label %if.end

if.then:                                          ; preds = %entry
  %stream_2 = getelementptr inbounds %"class.testing::MatchResultListener", ptr %this1, i32 0, i32 1
  %1 = load ptr, ptr %stream_2, align 8
  %2 = load ptr, ptr %x.addr, align 8
  %arraydecay = getelementptr inbounds [2 x i8], ptr %2, i64 0, i64 0
  %call = call noundef nonnull align 8 dereferenceable(8) ptr @_ZStlsISt11char_traitsIcEERSt13basic_ostreamIcT_ES5_PKc(ptr noundef nonnull align 8 dereferenceable(8) %1, ptr noundef %arraydecay)
  br label %if.end

if.end:                                           ; preds = %if.then, %entry
  ret ptr %this1
}

; Function Attrs: mustprogress uwtable
define linkonce_odr dso_local noundef nonnull align 8 dereferenceable(16) ptr @_ZN7testing19MatchResultListenerlsIPN4absl13cord_internal7CordRepEEERS0_RKT_(ptr noundef nonnull align 8 dereferenceable(16) %this, ptr noundef nonnull align 8 dereferenceable(8) %x) #4 comdat align 2 {
entry:
  %this.addr = alloca ptr, align 8
  %x.addr = alloca ptr, align 8
  store ptr %this, ptr %this.addr, align 8
  store ptr %x, ptr %x.addr, align 8
  %this1 = load ptr, ptr %this.addr, align 8
  %stream_ = getelementptr inbounds %"class.testing::MatchResultListener", ptr %this1, i32 0, i32 1
  %0 = load ptr, ptr %stream_, align 8
  %cmp = icmp ne ptr %0, null
  br i1 %cmp, label %if.then, label %if.end

if.then:                                          ; preds = %entry
  %stream_2 = getelementptr inbounds %"class.testing::MatchResultListener", ptr %this1, i32 0, i32 1
  %1 = load ptr, ptr %stream_2, align 8
  %2 = load ptr, ptr %x.addr, align 8
  %3 = load ptr, ptr %2, align 8
  %call = call noundef nonnull align 8 dereferenceable(8) ptr @_ZNSolsEPKv(ptr noundef nonnull align 8 dereferenceable(8) %1, ptr noundef %3)
  br label %if.end

if.end:                                           ; preds = %if.then, %entry
  ret ptr %this1
}

; Function Attrs: mustprogress uwtable
define linkonce_odr dso_local noundef nonnull align 8 dereferenceable(16) ptr @_ZN7testing19MatchResultListenerlsIA9_cEERS0_RKT_(ptr noundef nonnull align 8 dereferenceable(16) %this, ptr noundef nonnull align 1 dereferenceable(9) %x) #4 comdat align 2 {
entry:
  %this.addr = alloca ptr, align 8
  %x.addr = alloca ptr, align 8
  store ptr %this, ptr %this.addr, align 8
  store ptr %x, ptr %x.addr, align 8
  %this1 = load ptr, ptr %this.addr, align 8
  %stream_ = getelementptr inbounds %"class.testing::MatchResultListener", ptr %this1, i32 0, i32 1
  %0 = load ptr, ptr %stream_, align 8
  %cmp = icmp ne ptr %0, null
  br i1 %cmp, label %if.then, label %if.end

if.then:                                          ; preds = %entry
  %stream_2 = getelementptr inbounds %"class.testing::MatchResultListener", ptr %this1, i32 0, i32 1
  %1 = load ptr, ptr %stream_2, align 8
  %2 = load ptr, ptr %x.addr, align 8
  %arraydecay = getelementptr inbounds [9 x i8], ptr %2, i64 0, i64 0
  %call = call noundef nonnull align 8 dereferenceable(8) ptr @_ZStlsISt11char_traitsIcEERSt13basic_ostreamIcT_ES5_PKc(ptr noundef nonnull align 8 dereferenceable(8) %1, ptr noundef %arraydecay)
  br label %if.end

if.end:                                           ; preds = %if.then, %entry
  ret ptr %this1
}

; Function Attrs: mustprogress uwtable
define linkonce_odr dso_local noundef nonnull align 8 dereferenceable(16) ptr @_ZN7testing19MatchResultListenerlsIA3_cEERS0_RKT_(ptr noundef nonnull align 8 dereferenceable(16) %this, ptr noundef nonnull align 1 dereferenceable(3) %x) #4 comdat align 2 {
entry:
  %this.addr = alloca ptr, align 8
  %x.addr = alloca ptr, align 8
  store ptr %this, ptr %this.addr, align 8
  store ptr %x, ptr %x.addr, align 8
  %this1 = load ptr, ptr %this.addr, align 8
  %stream_ = getelementptr inbounds %"class.testing::MatchResultListener", ptr %this1, i32 0, i32 1
  %0 = load ptr, ptr %stream_, align 8
  %cmp = icmp ne ptr %0, null
  br i1 %cmp, label %if.then, label %if.end

if.then:                                          ; preds = %entry
  %stream_2 = getelementptr inbounds %"class.testing::MatchResultListener", ptr %this1, i32 0, i32 1
  %1 = load ptr, ptr %stream_2, align 8
  %2 = load ptr, ptr %x.addr, align 8
  %arraydecay = getelementptr inbounds [3 x i8], ptr %2, i64 0, i64 0
  %call = call noundef nonnull align 8 dereferenceable(8) ptr @_ZStlsISt11char_traitsIcEERSt13basic_ostreamIcT_ES5_PKc(ptr noundef nonnull align 8 dereferenceable(8) %1, ptr noundef %arraydecay)
  br label %if.end

if.end:                                           ; preds = %if.then, %entry
  ret ptr %this1
}

; Function Attrs: mustprogress uwtable
define linkonce_odr dso_local noundef nonnull align 8 dereferenceable(16) ptr @_ZN7testing19MatchResultListenerlsIPKvEERS0_RKT_(ptr noundef nonnull align 8 dereferenceable(16) %this, ptr noundef nonnull align 8 dereferenceable(8) %x) #4 comdat align 2 {
entry:
  %this.addr = alloca ptr, align 8
  %x.addr = alloca ptr, align 8
  store ptr %this, ptr %this.addr, align 8
  store ptr %x, ptr %x.addr, align 8
  %this1 = load ptr, ptr %this.addr, align 8
  %stream_ = getelementptr inbounds %"class.testing::MatchResultListener", ptr %this1, i32 0, i32 1
  %0 = load ptr, ptr %stream_, align 8
  %cmp = icmp ne ptr %0, null
  br i1 %cmp, label %if.then, label %if.end

if.then:                                          ; preds = %entry
  %stream_2 = getelementptr inbounds %"class.testing::MatchResultListener", ptr %this1, i32 0, i32 1
  %1 = load ptr, ptr %stream_2, align 8
  %2 = load ptr, ptr %x.addr, align 8
  %3 = load ptr, ptr %2, align 8
  %call = call noundef nonnull align 8 dereferenceable(8) ptr @_ZNSolsEPKv(ptr noundef nonnull align 8 dereferenceable(8) %1, ptr noundef %3)
  br label %if.end

if.end:                                           ; preds = %if.then, %entry
  ret ptr %this1
}

; Function Attrs: mustprogress uwtable
define linkonce_odr dso_local noundef nonnull align 8 dereferenceable(16) ptr @_ZN7testing19MatchResultListenerlsIA11_cEERS0_RKT_(ptr noundef nonnull align 8 dereferenceable(16) %this, ptr noundef nonnull align 1 dereferenceable(11) %x) #4 comdat align 2 {
entry:
  %this.addr = alloca ptr, align 8
  %x.addr = alloca ptr, align 8
  store ptr %this, ptr %this.addr, align 8
  store ptr %x, ptr %x.addr, align 8
  %this1 = load ptr, ptr %this.addr, align 8
  %stream_ = getelementptr inbounds %"class.testing::MatchResultListener", ptr %this1, i32 0, i32 1
  %0 = load ptr, ptr %stream_, align 8
  %cmp = icmp ne ptr %0, null
  br i1 %cmp, label %if.then, label %if.end

if.then:                                          ; preds = %entry
  %stream_2 = getelementptr inbounds %"class.testing::MatchResultListener", ptr %this1, i32 0, i32 1
  %1 = load ptr, ptr %stream_2, align 8
  %2 = load ptr, ptr %x.addr, align 8
  %arraydecay = getelementptr inbounds [11 x i8], ptr %2, i64 0, i64 0
  %call = call noundef nonnull align 8 dereferenceable(8) ptr @_ZStlsISt11char_traitsIcEERSt13basic_ostreamIcT_ES5_PKc(ptr noundef nonnull align 8 dereferenceable(8) %1, ptr noundef %arraydecay)
  br label %if.end

if.end:                                           ; preds = %if.then, %entry
  ret ptr %this1
}

; Function Attrs: mustprogress uwtable
define internal noundef zeroext i1 @_ZNK4absl13cord_internal12_GLOBAL__N_124EqExtractResultMatcherP2IPNS0_7CordRepES4_E10gmock_ImplIRKNS3_13ExtractResultEE15MatchAndExplainES9_PN7testing19MatchResultListenerE(ptr noundef nonnull align 8 dereferenceable(24) %this, ptr noundef nonnull align 8 dereferenceable(16) %arg, ptr noundef %result_listener) unnamed_addr #4 align 2 {
entry:
  %retval = alloca i1, align 1
  %this.addr = alloca ptr, align 8
  %arg.addr = alloca ptr, align 8
  %result_listener.addr = alloca ptr, align 8
  %ref.tmp = alloca ptr, align 8
  %ref.tmp7 = alloca ptr, align 8
  store ptr %this, ptr %this.addr, align 8
  store ptr %arg, ptr %arg.addr, align 8
  store ptr %result_listener, ptr %result_listener.addr, align 8
  %this1 = load ptr, ptr %this.addr, align 8
  %0 = load ptr, ptr %arg.addr, align 8
  %tree = getelementptr inbounds %"struct.absl::cord_internal::CordRep::ExtractResult", ptr %0, i32 0, i32 0
  %1 = load ptr, ptr %tree, align 8
  %tree2 = getelementptr inbounds %"class.absl::cord_internal::(anonymous namespace)::EqExtractResultMatcherP2<absl::cord_internal::CordRep *, absl::cord_internal::CordRep *>::gmock_Impl", ptr %this1, i32 0, i32 1
  %2 = load ptr, ptr %tree2, align 8
  %cmp = icmp ne ptr %1, %2
  br i1 %cmp, label %if.then, label %lor.lhs.false

lor.lhs.false:                                    ; preds = %entry
  %3 = load ptr, ptr %arg.addr, align 8
  %extracted = getelementptr inbounds %"struct.absl::cord_internal::CordRep::ExtractResult", ptr %3, i32 0, i32 1
  %4 = load ptr, ptr %extracted, align 8
  %rep = getelementptr inbounds %"class.absl::cord_internal::(anonymous namespace)::EqExtractResultMatcherP2<absl::cord_internal::CordRep *, absl::cord_internal::CordRep *>::gmock_Impl", ptr %this1, i32 0, i32 2
  %5 = load ptr, ptr %rep, align 8
  %cmp3 = icmp ne ptr %4, %5
  br i1 %cmp3, label %if.then, label %if.end

if.then:                                          ; preds = %lor.lhs.false, %entry
  %6 = load ptr, ptr %result_listener.addr, align 8
  %call = call noundef nonnull align 8 dereferenceable(16) ptr @_ZN7testing19MatchResultListenerlsIA11_cEERS0_RKT_(ptr noundef nonnull align 8 dereferenceable(16) %6, ptr noundef nonnull align 1 dereferenceable(11) @.str.341)
  %tree4 = getelementptr inbounds %"class.absl::cord_internal::(anonymous namespace)::EqExtractResultMatcherP2<absl::cord_internal::CordRep *, absl::cord_internal::CordRep *>::gmock_Impl", ptr %this1, i32 0, i32 1
  %7 = load ptr, ptr %tree4, align 8
  store ptr %7, ptr %ref.tmp, align 8
  %call5 = call noundef nonnull align 8 dereferenceable(16) ptr @_ZN7testing19MatchResultListenerlsIPKvEERS0_RKT_(ptr noundef nonnull align 8 dereferenceable(16) %call, ptr noundef nonnull align 8 dereferenceable(8) %ref.tmp)
  %call6 = call noundef nonnull align 8 dereferenceable(16) ptr @_ZN7testing19MatchResultListenerlsIA3_cEERS0_RKT_(ptr noundef nonnull align 8 dereferenceable(16) %call5, ptr noundef nonnull align 1 dereferenceable(3) @.str.119)
  %rep8 = getelementptr inbounds %"class.absl::cord_internal::(anonymous namespace)::EqExtractResultMatcherP2<absl::cord_internal::CordRep *, absl::cord_internal::CordRep *>::gmock_Impl", ptr %this1, i32 0, i32 2
  %8 = load ptr, ptr %rep8, align 8
  store ptr %8, ptr %ref.tmp7, align 8
  %call9 = call noundef nonnull align 8 dereferenceable(16) ptr @_ZN7testing19MatchResultListenerlsIPKvEERS0_RKT_(ptr noundef nonnull align 8 dereferenceable(16) %call6, ptr noundef nonnull align 8 dereferenceable(8) %ref.tmp7)
  %call10 = call noundef nonnull align 8 dereferenceable(16) ptr @_ZN7testing19MatchResultListenerlsIA9_cEERS0_RKT_(ptr noundef nonnull align 8 dereferenceable(16) %call9, ptr noundef nonnull align 1 dereferenceable(9) @.str.342)
  %9 = load ptr, ptr %arg.addr, align 8
  %tree11 = getelementptr inbounds %"struct.absl::cord_internal::CordRep::ExtractResult", ptr %9, i32 0, i32 0
  %call12 = call noundef nonnull align 8 dereferenceable(16) ptr @_ZN7testing19MatchResultListenerlsIPN4absl13cord_internal7CordRepEEERS0_RKT_(ptr noundef nonnull align 8 dereferenceable(16) %call10, ptr noundef nonnull align 8 dereferenceable(8) %tree11)
  %call13 = call noundef nonnull align 8 dereferenceable(16) ptr @_ZN7testing19MatchResultListenerlsIA3_cEERS0_RKT_(ptr noundef nonnull align 8 dereferenceable(16) %call12, ptr noundef nonnull align 1 dereferenceable(3) @.str.119)
  %10 = load ptr, ptr %arg.addr, align 8
  %extracted14 = getelementptr inbounds %"struct.absl::cord_internal::CordRep::ExtractResult", ptr %10, i32 0, i32 1
  %call15 = call noundef nonnull align 8 dereferenceable(16) ptr @_ZN7testing19MatchResultListenerlsIPN4absl13cord_internal7CordRepEEERS0_RKT_(ptr noundef nonnull align 8 dereferenceable(16) %call13, ptr noundef nonnull align 8 dereferenceable(8) %extracted14)
  %call16 = call noundef nonnull align 8 dereferenceable(16) ptr @_ZN7testing19MatchResultListenerlsIA2_cEERS0_RKT_(ptr noundef nonnull align 8 dereferenceable(16) %call15, ptr noundef nonnull align 1 dereferenceable(2) @.str.343)
  store i1 false, ptr %retval, align 1
  br label %return

if.end:                                           ; preds = %lor.lhs.false
  store i1 true, ptr %retval, align 1
  br label %return

return:                                           ; preds = %if.end, %if.then
  %11 = load i1, ptr %retval, align 1
  ret i1 %11
}